target datalayout = "e-m:e-p270:32:32-p271:32:32-p272:64:64-i64:64-i128:128-f80:128-n8:16:32:64-S128"
target triple = "x86_64-pc-linux-gnu"

%struct.AVEncryptionInfo = type { i32, i32, i32, ptr, i32, ptr, i32, ptr, i32 }
%struct.AVSubsampleEncryptionInfo = type { i32, i32 }

; Function Attrs: alwaysinline nounwind willreturn memory(none) uwtable
define internal i32 @av_bswap32(i32 noundef %0) #4 {
  %2 = alloca i32, align 4
  store i32 %0, ptr %2, align 4, !tbaa !4
  %3 = load i32, ptr %2, align 4, !tbaa !4
  %4 = shl i32 %3, 8
  %5 = and i32 %4, 65280
  %6 = load i32, ptr %2, align 4, !tbaa !4
  %7 = lshr i32 %6, 8
  %8 = and i32 %7, 255
  %9 = or i32 %5, %8
  %10 = shl i32 %9, 16
  %11 = load i32, ptr %2, align 4, !tbaa !4
  %12 = lshr i32 %11, 16
  %13 = shl i32 %12, 8
  %14 = and i32 %13, 65280
  %15 = load i32, ptr %2, align 4, !tbaa !4
  %16 = lshr i32 %15, 16
  %17 = lshr i32 %16, 8
  %18 = and i32 %17, 255
  %19 = or i32 %14, %18
  %20 = or i32 %10, %19
  ret i32 %20
}

; Function Attrs: nounwind uwtable
define ptr @av_encryption_info_add_side_data(ptr noundef %0, ptr noundef %1) #0 {
  %3 = alloca ptr, align 8
  %4 = alloca ptr, align 8
  %5 = alloca ptr, align 8
  %6 = alloca ptr, align 8
  %7 = alloca ptr, align 8
  %8 = alloca i32, align 4
  %9 = alloca i32, align 4
  store ptr %0, ptr %4, align 8, !tbaa !8
  store ptr %1, ptr %5, align 8, !tbaa !32
  call void @llvm.lifetime.start.p0(i64 8, ptr %6) #5
  call void @llvm.lifetime.start.p0(i64 8, ptr %7) #5
  call void @llvm.lifetime.start.p0(i64 4, ptr %8) #5
  %10 = load ptr, ptr %4, align 8, !tbaa !8
  %11 = getelementptr inbounds nuw %struct.AVEncryptionInfo, ptr %10, i32 0, i32 4
  %12 = load i32, ptr %11, align 8, !tbaa !15
  %13 = icmp ult i32 -25, %12
  br i1 %13, label %37, label %14

14:                                               ; preds = %2
  %15 = load ptr, ptr %4, align 8, !tbaa !8
  %16 = getelementptr inbounds nuw %struct.AVEncryptionInfo, ptr %15, i32 0, i32 4
  %17 = load i32, ptr %16, align 8, !tbaa !15
  %18 = sub i32 -25, %17
  %19 = load ptr, ptr %4, align 8, !tbaa !8
  %20 = getelementptr inbounds nuw %struct.AVEncryptionInfo, ptr %19, i32 0, i32 6
  %21 = load i32, ptr %20, align 8, !tbaa !17
  %22 = icmp ult i32 %18, %21
  br i1 %22, label %37, label %23

23:                                               ; preds = %14
  %24 = load ptr, ptr %4, align 8, !tbaa !8
  %25 = getelementptr inbounds nuw %struct.AVEncryptionInfo, ptr %24, i32 0, i32 4
  %26 = load i32, ptr %25, align 8, !tbaa !15
  %27 = sub i32 -25, %26
  %28 = load ptr, ptr %4, align 8, !tbaa !8
  %29 = getelementptr inbounds nuw %struct.AVEncryptionInfo, ptr %28, i32 0, i32 6
  %30 = load i32, ptr %29, align 8, !tbaa !17
  %31 = sub i32 %27, %30
  %32 = udiv i32 %31, 8
  %33 = load ptr, ptr %4, align 8, !tbaa !8
  %34 = getelementptr inbounds nuw %struct.AVEncryptionInfo, ptr %33, i32 0, i32 8
  %35 = load i32, ptr %34, align 8, !tbaa !19
  %36 = icmp ult i32 %32, %35
  br i1 %36, label %37, label %38

37:                                               ; preds = %23, %14, %2
  store ptr null, ptr %3, align 8
  store i32 1, ptr %9, align 4
  br label %161

38:                                               ; preds = %23
  %39 = load ptr, ptr %4, align 8, !tbaa !8
  %40 = getelementptr inbounds nuw %struct.AVEncryptionInfo, ptr %39, i32 0, i32 4
  %41 = load i32, ptr %40, align 8, !tbaa !15
  %42 = add i32 24, %41
  %43 = load ptr, ptr %4, align 8, !tbaa !8
  %44 = getelementptr inbounds nuw %struct.AVEncryptionInfo, ptr %43, i32 0, i32 6
  %45 = load i32, ptr %44, align 8, !tbaa !17
  %46 = add i32 %42, %45
  %47 = load ptr, ptr %4, align 8, !tbaa !8
  %48 = getelementptr inbounds nuw %struct.AVEncryptionInfo, ptr %47, i32 0, i32 8
  %49 = load i32, ptr %48, align 8, !tbaa !19
  %50 = mul i32 %49, 8
  %51 = add i32 %46, %50
  %52 = zext i32 %51 to i64
  %53 = load ptr, ptr %5, align 8, !tbaa !32
  store i64 %52, ptr %53, align 8, !tbaa !24
  %54 = load ptr, ptr %5, align 8, !tbaa !32
  %55 = load i64, ptr %54, align 8, !tbaa !24
  %56 = call noalias ptr @av_malloc(i64 noundef %55)
  store ptr %56, ptr %6, align 8, !tbaa !23
  store ptr %56, ptr %7, align 8, !tbaa !23
  %57 = load ptr, ptr %6, align 8, !tbaa !23
  %58 = icmp ne ptr %57, null
  br i1 %58, label %60, label %59

59:                                               ; preds = %38
  store ptr null, ptr %3, align 8
  store i32 1, ptr %9, align 4
  br label %161

60:                                               ; preds = %38
  %61 = load ptr, ptr %4, align 8, !tbaa !8
  %62 = getelementptr inbounds nuw %struct.AVEncryptionInfo, ptr %61, i32 0, i32 0
  %63 = load i32, ptr %62, align 8, !tbaa !20
  %64 = call i32 @av_bswap32(i32 noundef %63) #6
  %65 = load ptr, ptr %7, align 8, !tbaa !23
  store i32 %64, ptr %65, align 1, !tbaa !26
  %66 = load ptr, ptr %4, align 8, !tbaa !8
  %67 = getelementptr inbounds nuw %struct.AVEncryptionInfo, ptr %66, i32 0, i32 1
  %68 = load i32, ptr %67, align 4, !tbaa !21
  %69 = call i32 @av_bswap32(i32 noundef %68) #6
  %70 = load ptr, ptr %7, align 8, !tbaa !23
  %71 = getelementptr inbounds i8, ptr %70, i64 4
  store i32 %69, ptr %71, align 1, !tbaa !26
  %72 = load ptr, ptr %4, align 8, !tbaa !8
  %73 = getelementptr inbounds nuw %struct.AVEncryptionInfo, ptr %72, i32 0, i32 2
  %74 = load i32, ptr %73, align 8, !tbaa !22
  %75 = call i32 @av_bswap32(i32 noundef %74) #6
  %76 = load ptr, ptr %7, align 8, !tbaa !23
  %77 = getelementptr inbounds i8, ptr %76, i64 8
  store i32 %75, ptr %77, align 1, !tbaa !26
  %78 = load ptr, ptr %4, align 8, !tbaa !8
  %79 = getelementptr inbounds nuw %struct.AVEncryptionInfo, ptr %78, i32 0, i32 4
  %80 = load i32, ptr %79, align 8, !tbaa !15
  %81 = call i32 @av_bswap32(i32 noundef %80) #6
  %82 = load ptr, ptr %7, align 8, !tbaa !23
  %83 = getelementptr inbounds i8, ptr %82, i64 12
  store i32 %81, ptr %83, align 1, !tbaa !26
  %84 = load ptr, ptr %4, align 8, !tbaa !8
  %85 = getelementptr inbounds nuw %struct.AVEncryptionInfo, ptr %84, i32 0, i32 6
  %86 = load i32, ptr %85, align 8, !tbaa !17
  %87 = call i32 @av_bswap32(i32 noundef %86) #6
  %88 = load ptr, ptr %7, align 8, !tbaa !23
  %89 = getelementptr inbounds i8, ptr %88, i64 16
  store i32 %87, ptr %89, align 1, !tbaa !26
  %90 = load ptr, ptr %4, align 8, !tbaa !8
  %91 = getelementptr inbounds nuw %struct.AVEncryptionInfo, ptr %90, i32 0, i32 8
  %92 = load i32, ptr %91, align 8, !tbaa !19
  %93 = call i32 @av_bswap32(i32 noundef %92) #6
  %94 = load ptr, ptr %7, align 8, !tbaa !23
  %95 = getelementptr inbounds i8, ptr %94, i64 20
  store i32 %93, ptr %95, align 1, !tbaa !26
  %96 = load ptr, ptr %7, align 8, !tbaa !23
  %97 = getelementptr inbounds i8, ptr %96, i64 24
  store ptr %97, ptr %7, align 8, !tbaa !23
  %98 = load ptr, ptr %7, align 8, !tbaa !23
  %99 = load ptr, ptr %4, align 8, !tbaa !8
  %100 = getelementptr inbounds nuw %struct.AVEncryptionInfo, ptr %99, i32 0, i32 3
  %101 = load ptr, ptr %100, align 8, !tbaa !11
  %102 = load ptr, ptr %4, align 8, !tbaa !8
  %103 = getelementptr inbounds nuw %struct.AVEncryptionInfo, ptr %102, i32 0, i32 4
  %104 = load i32, ptr %103, align 8, !tbaa !15
  %105 = zext i32 %104 to i64
  call void @llvm.memcpy.p0.p0.i64(ptr align 1 %98, ptr align 1 %101, i64 %105, i1 false)
  %106 = load ptr, ptr %4, align 8, !tbaa !8
  %107 = getelementptr inbounds nuw %struct.AVEncryptionInfo, ptr %106, i32 0, i32 4
  %108 = load i32, ptr %107, align 8, !tbaa !15
  %109 = load ptr, ptr %7, align 8, !tbaa !23
  %110 = zext i32 %108 to i64
  %111 = getelementptr inbounds nuw i8, ptr %109, i64 %110
  store ptr %111, ptr %7, align 8, !tbaa !23
  %112 = load ptr, ptr %7, align 8, !tbaa !23
  %113 = load ptr, ptr %4, align 8, !tbaa !8
  %114 = getelementptr inbounds nuw %struct.AVEncryptionInfo, ptr %113, i32 0, i32 5
  %115 = load ptr, ptr %114, align 8, !tbaa !16
  %116 = load ptr, ptr %4, align 8, !tbaa !8
  %117 = getelementptr inbounds nuw %struct.AVEncryptionInfo, ptr %116, i32 0, i32 6
  %118 = load i32, ptr %117, align 8, !tbaa !17
  %119 = zext i32 %118 to i64
  call void @llvm.memcpy.p0.p0.i64(ptr align 1 %112, ptr align 1 %115, i64 %119, i1 false)
  %120 = load ptr, ptr %4, align 8, !tbaa !8
  %121 = getelementptr inbounds nuw %struct.AVEncryptionInfo, ptr %120, i32 0, i32 6
  %122 = load i32, ptr %121, align 8, !tbaa !17
  %123 = load ptr, ptr %7, align 8, !tbaa !23
  %124 = zext i32 %122 to i64
  %125 = getelementptr inbounds nuw i8, ptr %123, i64 %124
  store ptr %125, ptr %7, align 8, !tbaa !23
  store i32 0, ptr %8, align 4, !tbaa !4
  br label %126

126:                                              ; preds = %156, %60
  %127 = load i32, ptr %8, align 4, !tbaa !4
  %128 = load ptr, ptr %4, align 8, !tbaa !8
  %129 = getelementptr inbounds nuw %struct.AVEncryptionInfo, ptr %128, i32 0, i32 8
  %130 = load i32, ptr %129, align 8, !tbaa !19
  %131 = icmp ult i32 %127, %130
  br i1 %131, label %132, label %159

132:                                              ; preds = %126
  %133 = load ptr, ptr %4, align 8, !tbaa !8
  %134 = getelementptr inbounds nuw %struct.AVEncryptionInfo, ptr %133, i32 0, i32 7
  %135 = load ptr, ptr %134, align 8, !tbaa !18
  %136 = load i32, ptr %8, align 4, !tbaa !4
  %137 = zext i32 %136 to i64
  %138 = getelementptr inbounds nuw %struct.AVSubsampleEncryptionInfo, ptr %135, i64 %137
  %139 = getelementptr inbounds nuw %struct.AVSubsampleEncryptionInfo, ptr %138, i32 0, i32 0
  %140 = load i32, ptr %139, align 4, !tbaa !27
  %141 = call i32 @av_bswap32(i32 noundef %140) #6
  %142 = load ptr, ptr %7, align 8, !tbaa !23
  store i32 %141, ptr %142, align 1, !tbaa !26
  %143 = load ptr, ptr %4, align 8, !tbaa !8
  %144 = getelementptr inbounds nuw %struct.AVEncryptionInfo, ptr %143, i32 0, i32 7
  %145 = load ptr, ptr %144, align 8, !tbaa !18
  %146 = load i32, ptr %8, align 4, !tbaa !4
  %147 = zext i32 %146 to i64
  %148 = getelementptr inbounds nuw %struct.AVSubsampleEncryptionInfo, ptr %145, i64 %147
  %149 = getelementptr inbounds nuw %struct.AVSubsampleEncryptionInfo, ptr %148, i32 0, i32 1
  %150 = load i32, ptr %149, align 4, !tbaa !29
  %151 = call i32 @av_bswap32(i32 noundef %150) #6
  %152 = load ptr, ptr %7, align 8, !tbaa !23
  %153 = getelementptr inbounds i8, ptr %152, i64 4
  store i32 %151, ptr %153, align 1, !tbaa !26
  %154 = load ptr, ptr %7, align 8, !tbaa !23
  %155 = getelementptr inbounds i8, ptr %154, i64 8
  store ptr %155, ptr %7, align 8, !tbaa !23
  br label %156

156:                                              ; preds = %132
  %157 = load i32, ptr %8, align 4, !tbaa !4
  %158 = add i32 %157, 1
  store i32 %158, ptr %8, align 4, !tbaa !4
  br label %126, !llvm.loop !34

159:                                              ; preds = %126
  %160 = load ptr, ptr %6, align 8, !tbaa !23
  store ptr %160, ptr %3, align 8
  store i32 1, ptr %9, align 4
  br label %161

161:                                              ; preds = %159, %59, %37
  call void @llvm.lifetime.end.p0(i64 4, ptr %8) #5
  call void @llvm.lifetime.end.p0(i64 8, ptr %7) #5
  call void @llvm.lifetime.end.p0(i64 8, ptr %6) #5
  %162 = load ptr, ptr %3, align 8
  ret ptr %162
}