; Function Attrs: nounwind uwtable
define noalias ptr @av_encryption_info_add_side_data(ptr noundef readonly captures(none) %0, ptr noundef writeonly captures(none) %1) local_unnamed_addr #0 {
  %3 = getelementptr inbounds nuw i8, ptr %0, i64 24
  %4 = load i32, ptr %3, align 8, !tbaa !12
  %5 = icmp ugt i32 %4, -25
  br i1 %5, label %.loopexit, label %6

6:                                                ; preds = %2
  %7 = sub nuw i32 -25, %4
  %8 = getelementptr inbounds nuw i8, ptr %0, i64 40
  %9 = load i32, ptr %8, align 8, !tbaa !14
  %10 = icmp ult i32 %7, %9
  br i1 %10, label %.loopexit, label %11

11:                                               ; preds = %6
  %12 = sub nuw i32 %7, %9
  %13 = lshr i32 %12, 3
  %14 = getelementptr inbounds nuw i8, ptr %0, i64 56
  %15 = load i32, ptr %14, align 8, !tbaa !16
  %16 = icmp ult i32 %13, %15
  br i1 %16, label %.loopexit, label %17

17:                                               ; preds = %11
  %18 = add nuw i32 %4, 24
  %19 = add i32 %18, %9
  %20 = shl nuw i32 %15, 3
  %21 = add i32 %19, %20
  %22 = zext i32 %21 to i64
  store i64 %22, ptr %1, align 8, !tbaa !26
  %23 = tail call noalias ptr @av_malloc(i64 noundef %22) #4
  %.not = icmp eq ptr %23, null
  br i1 %.not, label %.loopexit, label %24

24:                                               ; preds = %17
  %25 = load i32, ptr %0, align 8, !tbaa !17
  %26 = tail call i32 @llvm.bswap.i32(i32 %25)
  store i32 %26, ptr %23, align 1, !tbaa !20
  %27 = getelementptr inbounds nuw i8, ptr %0, i64 4
  %28 = load i32, ptr %27, align 4, !tbaa !18
  %29 = tail call i32 @llvm.bswap.i32(i32 %28)
  %30 = getelementptr inbounds nuw i8, ptr %23, i64 4
  store i32 %29, ptr %30, align 1, !tbaa !20
  %31 = getelementptr inbounds nuw i8, ptr %0, i64 8
  %32 = load i32, ptr %31, align 8, !tbaa !19
  %33 = tail call i32 @llvm.bswap.i32(i32 %32)
  %34 = getelementptr inbounds nuw i8, ptr %23, i64 8
  store i32 %33, ptr %34, align 1, !tbaa !20
  %35 = load i32, ptr %3, align 8, !tbaa !12
  %36 = tail call i32 @llvm.bswap.i32(i32 %35)
  %37 = getelementptr inbounds nuw i8, ptr %23, i64 12
  store i32 %36, ptr %37, align 1, !tbaa !20
  %38 = load i32, ptr %8, align 8, !tbaa !14
  %39 = tail call i32 @llvm.bswap.i32(i32 %38)
  %40 = getelementptr inbounds nuw i8, ptr %23, i64 16
  store i32 %39, ptr %40, align 1, !tbaa !20
  %41 = load i32, ptr %14, align 8, !tbaa !16
  %42 = tail call i32 @llvm.bswap.i32(i32 %41)
  %43 = getelementptr inbounds nuw i8, ptr %23, i64 20
  store i32 %42, ptr %43, align 1, !tbaa !20
  %44 = getelementptr inbounds nuw i8, ptr %23, i64 24
  %45 = getelementptr inbounds nuw i8, ptr %0, i64 16
  %46 = load ptr, ptr %45, align 8, !tbaa !4
  %47 = zext i32 %35 to i64
  tail call void @llvm.memcpy.p0.p0.i64(ptr nonnull align 1 %44, ptr align 1 %46, i64 %47, i1 false)
  %48 = getelementptr inbounds nuw i8, ptr %44, i64 %47
  %49 = getelementptr inbounds nuw i8, ptr %0, i64 32
  %50 = load ptr, ptr %49, align 8, !tbaa !13
  %51 = zext i32 %38 to i64
  tail call void @llvm.memcpy.p0.p0.i64(ptr nonnull align 1 %48, ptr align 1 %50, i64 %51, i1 false)
  %.not55 = icmp eq i32 %41, 0
  br i1 %.not55, label %.loopexit, label %.lr.ph

.lr.ph:                                           ; preds = %24
  %52 = getelementptr inbounds nuw i8, ptr %48, i64 %51
  %53 = getelementptr inbounds nuw i8, ptr %0, i64 48
  %54 = load ptr, ptr %53, align 8, !tbaa !15
  %wide.trip.count = zext i32 %41 to i64
  br label %55

55:                                               ; preds = %.lr.ph, %55
  %indvars.iv = phi i64 [ 0, %.lr.ph ], [ %indvars.iv.next, %55 ]
  %.04653 = phi ptr [ %52, %.lr.ph ], [ %63, %55 ]
  %56 = getelementptr inbounds nuw %struct.AVSubsampleEncryptionInfo, ptr %54, i64 %indvars.iv
  %57 = load i32, ptr %56, align 4, !tbaa !21
  %58 = tail call i32 @llvm.bswap.i32(i32 %57)
  store i32 %58, ptr %.04653, align 1, !tbaa !20
  %59 = getelementptr inbounds nuw %struct.AVSubsampleEncryptionInfo, ptr %54, i64 %indvars.iv, i32 1
  %60 = load i32, ptr %59, align 4, !tbaa !23
  %61 = tail call i32 @llvm.bswap.i32(i32 %60)
  %62 = getelementptr inbounds nuw i8, ptr %.04653, i64 4
  store i32 %61, ptr %62, align 1, !tbaa !20
  %63 = getelementptr inbounds nuw i8, ptr %.04653, i64 8
  %indvars.iv.next = add nuw nsw i64 %indvars.iv, 1
  %exitcond.not = icmp eq i64 %indvars.iv.next, %wide.trip.count
  br i1 %exitcond.not, label %.loopexit, label %55, !llvm.loop !28

.loopexit:                                        ; preds = %55, %24, %17, %2, %6, %11
  %.047 = phi ptr [ null, %11 ], [ null, %6 ], [ null, %2 ], [ null, %17 ], [ %23, %24 ], [ %23, %55 ]
  ret ptr %.047
}